target datalayout = "e-m:e-p270:32:32-p271:32:32-p272:64:64-i64:64-i128:128-f80:128-n8:16:32:64-S128"
target triple = "x86_64-pc-linux-gnu"

%struct._zend_array = type { %struct._zend_refcounted_h, %union.anon.5, i32, %union.anon.7, i32, i32, i32, i32, i64, ptr }
%struct._zend_refcounted_h = type { i32, %union.anon.3 }
%union.anon.3 = type { i32 }
%union.anon.5 = type { i32 }
%union.anon.7 = type { ptr }
%struct.zend_type = type { ptr, i32 }
%struct._zval_struct = type { %union._zend_value, %union.anon, %union.anon.2 }
%union._zend_value = type { i64 }
%union.anon = type { i32 }
%union.anon.2 = type { i32 }
%struct._zend_class_entry = type { i8, ptr, %union.anon.4, i32, i32, i32, i32, ptr, ptr, ptr, %struct._zend_array, %struct._zend_array, %struct._zend_array, ptr, ptr, ptr, ptr, ptr, ptr, ptr, ptr, ptr, ptr, ptr, ptr, ptr, ptr, ptr, ptr, ptr, ptr, ptr, %union.anon.8, ptr, ptr, ptr, ptr, i32, i32, %union.anon.9, ptr, ptr, ptr, ptr, i32, ptr, ptr, %union.anon.10 }
%union.anon.4 = type { ptr }
%union.anon.8 = type { ptr }
%union.anon.9 = type { ptr }
%union.anon.10 = type { %struct.anon.11 }
%struct.anon.11 = type { ptr, i32, i32 }

@zend_known_strings = external global ptr, align 8
@__const.zend_enum_register_props.name_type = private unnamed_addr constant %struct.zend_type { ptr null, i32 64 }, align 8

; Function Attrs: nounwind uwtable
define hidden void @zend_enum_register_props(ptr noundef %0) #0 {
  %2 = alloca ptr, align 8
  %3 = alloca %struct._zval_struct, align 8
  %4 = alloca %struct.zend_type, align 8
  %5 = alloca %struct._zval_struct, align 8
  %6 = alloca %struct.zend_type, align 8
  store ptr %0, ptr %2, align 8
  %7 = load ptr, ptr %2, align 8
  %8 = getelementptr inbounds %struct._zend_class_entry, ptr %7, i32 0, i32 4
  %9 = load i32, ptr %8, align 4
  %10 = or i32 %9, 8192
  store i32 %10, ptr %8, align 4
  br label %11

11:                                               ; preds = %1
  %12 = getelementptr inbounds %struct._zval_struct, ptr %3, i32 0, i32 1
  store i32 0, ptr %12, align 8
  br label %13

13:                                               ; preds = %11
  call void @llvm.memcpy.p0.p0.i64(ptr align 8 %4, ptr align 8 @__const.zend_enum_register_props.name_type, i64 16, i1 false)
  %14 = load ptr, ptr %2, align 8
  %15 = load ptr, ptr @zend_known_strings, align 8
  %16 = getelementptr inbounds ptr, ptr %15, i64 44
  %17 = load ptr, ptr %16, align 8
  %18 = call ptr @zend_declare_typed_property(ptr noundef %14, ptr noundef %17, ptr noundef %3, i32 noundef 129, ptr noundef null, ptr noundef byval(%struct.zend_type) align 8 %4)
  %19 = load ptr, ptr %2, align 8
  %20 = getelementptr inbounds %struct._zend_class_entry, ptr %19, i32 0, i32 44
  %21 = load i32, ptr %20, align 8
  %22 = icmp ne i32 %21, 0
  br i1 %22, label %23, label %64

23:                                               ; preds = %13
  br label %24

24:                                               ; preds = %23
  %25 = getelementptr inbounds %struct._zval_struct, ptr %5, i32 0, i32 1
  store i32 0, ptr %25, align 8
  br label %26

26:                                               ; preds = %24
  %27 = getelementptr inbounds %struct.zend_type, ptr %6, i32 0, i32 0
  store ptr null, ptr %27, align 8
  %28 = getelementptr inbounds %struct.zend_type, ptr %6, i32 0, i32 1
  %29 = load ptr, ptr %2, align 8
  %30 = getelementptr inbounds %struct._zend_class_entry, ptr %29, i32 0, i32 44
  %31 = load i32, ptr %30, align 8
  %32 = icmp eq i32 %31, 18
  br i1 %32, label %33, label %34

33:                                               ; preds = %26
  br label %55

34:                                               ; preds = %26
  %35 = load ptr, ptr %2, align 8
  %36 = getelementptr inbounds %struct._zend_class_entry, ptr %35, i32 0, i32 44
  %37 = load i32, ptr %36, align 8
  %38 = icmp eq i32 %37, 13
  br i1 %38, label %39, label %40

39:                                               ; preds = %34
  br label %53

40:                                               ; preds = %34
  %41 = load ptr, ptr %2, align 8
  %42 = getelementptr inbounds %struct._zend_class_entry, ptr %41, i32 0, i32 44
  %43 = load i32, ptr %42, align 8
  %44 = icmp eq i32 %43, 16
  br i1 %44, label %45, label %46

45:                                               ; preds = %40
  br label %51

46:                                               ; preds = %40
  %47 = load ptr, ptr %2, align 8
  %48 = getelementptr inbounds %struct._zend_class_entry, ptr %47, i32 0, i32 44
  %49 = load i32, ptr %48, align 8
  %50 = shl i32 1, %49
  br label %51

51:                                               ; preds = %46, %45
  %52 = phi i32 [ 1022, %45 ], [ %50, %46 ]
  br label %53

53:                                               ; preds = %51, %39
  %54 = phi i32 [ 2097152, %39 ], [ %52, %51 ]
  br label %55

55:                                               ; preds = %53, %33
  %56 = phi i32 [ 12, %33 ], [ %54, %53 ]
  %57 = or i32 %56, 0
  %58 = or i32 %57, 0
  store i32 %58, ptr %28, align 8
  %59 = load ptr, ptr %2, align 8
  %60 = load ptr, ptr @zend_known_strings, align 8
  %61 = getelementptr inbounds ptr, ptr %60, i64 20
  %62 = load ptr, ptr %61, align 8
  %63 = call ptr @zend_declare_typed_property(ptr noundef %59, ptr noundef %62, ptr noundef %5, i32 noundef 129, ptr noundef null, ptr noundef byval(%struct.zend_type) align 8 %6)
  br label %64

64:                                               ; preds = %55, %13
  ret void
}