; Function Attrs: nounwind uwtable
define hidden void @zend_enum_register_props(ptr noundef %0) local_unnamed_addr #0 {
  %2 = alloca %struct._zval_struct, align 8
  %3 = alloca %struct._zval_struct, align 8
  %4 = alloca %struct.zend_type, align 8
  %5 = getelementptr inbounds i8, ptr %0, i64 28
  %6 = load i32, ptr %5, align 4
  %7 = or i32 %6, 8192
  store i32 %7, ptr %5, align 4
  %8 = getelementptr inbounds i8, ptr %2, i64 8
  store i32 0, ptr %8, align 8
  %9 = load ptr, ptr @zend_known_strings, align 8
  %10 = getelementptr inbounds i8, ptr %9, i64 352
  %11 = load ptr, ptr %10, align 8
  %12 = call ptr @zend_declare_typed_property(ptr noundef %0, ptr noundef %11, ptr noundef nonnull %2, i32 noundef 129, ptr noundef null, ptr noundef nonnull byval(%struct.zend_type) align 8 @__const.zend_enum_register_props.name_type) #12
  %13 = getelementptr inbounds i8, ptr %0, i64 472
  %14 = load i32, ptr %13, align 8
  %.not = icmp eq i32 %14, 0
  br i1 %.not, label %26, label %15

15:                                               ; preds = %1
  %16 = getelementptr inbounds i8, ptr %3, i64 8
  store i32 0, ptr %16, align 8
  store ptr null, ptr %4, align 8
  %17 = getelementptr inbounds i8, ptr %4, i64 8
  switch i32 %14, label %18 [
    i32 18, label %20
    i32 13, label %.fold.split
    i32 16, label %.fold.split8
  ]

18:                                               ; preds = %15
  %19 = shl nuw i32 1, %14
  br label %20

.fold.split:                                      ; preds = %15
  br label %20

.fold.split8:                                     ; preds = %15
  br label %20

20:                                               ; preds = %15, %.fold.split8, %.fold.split, %18
  %21 = phi i32 [ 12, %15 ], [ %19, %18 ], [ 2097152, %.fold.split ], [ 1022, %.fold.split8 ]
  store i32 %21, ptr %17, align 8
  %22 = load ptr, ptr @zend_known_strings, align 8
  %23 = getelementptr inbounds i8, ptr %22, i64 160
  %24 = load ptr, ptr %23, align 8
  %25 = call ptr @zend_declare_typed_property(ptr noundef nonnull %0, ptr noundef %24, ptr noundef nonnull %3, i32 noundef 129, ptr noundef null, ptr noundef nonnull byval(%struct.zend_type) align 8 %4) #12
  br label %26

26:                                               ; preds = %20, %1
  ret void
}